; Function Attrs: mustprogress uwtable
define dso_local nonnull ptr @_ZN5vcpkg7Triplet19from_canonical_nameENSt7__cxx1112basic_stringIcSt11char_traitsIcESaIcEEE(ptr noundef %0) local_unnamed_addr #3 align 2 {
  %2 = load atomic i8, ptr @_ZGVZN5vcpkg7Triplet19from_canonical_nameENSt7__cxx1112basic_stringIcSt11char_traitsIcESaIcEEEE19g_triplet_instances acquire, align 8
  %3 = icmp eq i8 %2, 0
  br i1 %3, label %4, label %8, !prof !14

4:                                                ; preds = %1
  %5 = tail call i32 @__cxa_guard_acquire(ptr nonnull @_ZGVZN5vcpkg7Triplet19from_canonical_nameENSt7__cxx1112basic_stringIcSt11char_traitsIcESaIcEEEE19g_triplet_instances) #26
  %.not = icmp eq i32 %5, 0
  br i1 %.not, label %8, label %6

6:                                                ; preds = %4
  store ptr getelementptr inbounds nuw (i8, ptr @_ZZN5vcpkg7Triplet19from_canonical_nameENSt7__cxx1112basic_stringIcSt11char_traitsIcESaIcEEEE19g_triplet_instances, i64 48), ptr @_ZZN5vcpkg7Triplet19from_canonical_nameENSt7__cxx1112basic_stringIcSt11char_traitsIcESaIcEEEE19g_triplet_instances, align 8, !tbaa !15
  store i64 1, ptr getelementptr inbounds nuw (i8, ptr @_ZZN5vcpkg7Triplet19from_canonical_nameENSt7__cxx1112basic_stringIcSt11char_traitsIcESaIcEEEE19g_triplet_instances, i64 8), align 8, !tbaa !23
  tail call void @llvm.memset.p0.i64(ptr noundef nonnull align 8 dereferenceable(16) getelementptr inbounds nuw (i8, ptr @_ZZN5vcpkg7Triplet19from_canonical_nameENSt7__cxx1112basic_stringIcSt11char_traitsIcESaIcEEEE19g_triplet_instances, i64 16), i8 0, i64 16, i1 false)
  store float 1.000000e+00, ptr getelementptr inbounds nuw (i8, ptr @_ZZN5vcpkg7Triplet19from_canonical_nameENSt7__cxx1112basic_stringIcSt11char_traitsIcESaIcEEEE19g_triplet_instances, i64 32), align 8, !tbaa !24
  tail call void @llvm.memset.p0.i64(ptr noundef nonnull align 8 dereferenceable(16) getelementptr inbounds nuw (i8, ptr @_ZZN5vcpkg7Triplet19from_canonical_nameENSt7__cxx1112basic_stringIcSt11char_traitsIcESaIcEEEE19g_triplet_instances, i64 40), i8 0, i64 16, i1 false)
  %7 = tail call i32 @__cxa_atexit(ptr nonnull @_ZNSt13unordered_setIN5vcpkg15TripletInstanceESt4hashIS1_ESt8equal_toIS1_ESaIS1_EED2Ev, ptr nonnull @_ZZN5vcpkg7Triplet19from_canonical_nameENSt7__cxx1112basic_stringIcSt11char_traitsIcESaIcEEEE19g_triplet_instances, ptr nonnull @__dso_handle) #26
  tail call void @__cxa_guard_release(ptr nonnull @_ZGVZN5vcpkg7Triplet19from_canonical_nameENSt7__cxx1112basic_stringIcSt11char_traitsIcESaIcEEEE19g_triplet_instances) #26
  br label %8

8:                                                ; preds = %6, %4, %1
  tail call void @_ZN5vcpkg7Strings26inplace_ascii_to_lowercaseERNSt7__cxx1112basic_stringIcSt11char_traitsIcESaIcEEE(ptr noundef nonnull align 8 dereferenceable(32) %0)
  %9 = tail call { ptr, i8 } @_ZNSt10_HashtableIN5vcpkg15TripletInstanceES1_SaIS1_ENSt8__detail9_IdentityESt8equal_toIS1_ESt4hashIS1_ENS3_18_Mod_range_hashingENS3_20_Default_ranged_hashENS3_20_Prime_rehash_policyENS3_17_Hashtable_traitsILb1ELb1ELb1EEEE10_M_emplaceIJNSt7__cxx1112basic_stringIcSt11char_traitsIcESaIcEEEEEESt4pairINS3_14_Node_iteratorIS1_Lb1ELb1EEEbESt17integral_constantIbLb1EEDpOT_(ptr noundef nonnull align 8 dereferenceable(56) @_ZZN5vcpkg7Triplet19from_canonical_nameENSt7__cxx1112basic_stringIcSt11char_traitsIcESaIcEEEE19g_triplet_instances, ptr noundef nonnull align 8 dereferenceable(32) %0)
  %.fca.0.extract = extractvalue { ptr, i8 } %9, 0
  %10 = getelementptr inbounds nuw i8, ptr %.fca.0.extract, i64 8
  ret ptr %10
}